(dp0
S'water activities'
p1
I15
sI0
I34
sS'walking'
p2
I12
sI3
I37
sI4
I23
sI5
I30
sI6
I32
sS'transportation'
p3
I18
sI8
I31
sI9
I26
sI10
I21
sI11
I38
sI12
I39
sI13
I20
sI14
I27
sI15
I24
sS'conditioning exercise'
p4
I1
sI17
I25
sI18
I33
sI19
I28
sS'bicycling'
p5
I14
sS'inactivity quiet/light'
p6
I10
sS'lawn and garden'
p7
I3
sS'occupation'
p8
I4
sI1
I35
sS'winter activities'
p9
I9
sS'fishing and hunting'
p10
I11
sS'music playing'
p11
I5
sS'sports'
p12
I6
sS'home repair'
p13
I8
sI2
I36
sS'religious activities'
p14
I17
sS'miscellaneous'
p15
I0
sS'running'
p16
I16
sS'home activities'
p17
I2
sI7
I29
sS'self care'
p18
I13
sI16
I22
sS'dancing'
p19
I7
sS'volunteer activities'
p20
I19
s.