(dp0
I0
S'miscellaneous'
p1
sI1
S'conditioning exercise'
p2
sI2
S'home activities'
p3
sI3
S'lawn and garden'
p4
sI4
S'occupation'
p5
sI5
S'music playing'
p6
sI6
S'sports'
p7
sI7
S'dancing'
p8
sI8
S'home repair'
p9
sI9
S'winter activities'
p10
sI10
S'inactivity quiet/light'
p11
sI11
S'fishing and hunting'
p12
sI12
S'walking'
p13
sI13
S'self care'
p14
sI14
S'bicycling'
p15
sI15
S'water activities'
p16
sI16
S'running'
p17
sI17
S'religious activities'
p18
sI18
S'transportation'
p19
sI19
S'volunteer activities'
p20
sI20
I13
sI21
I10
sI22
I16
sI23
I4
sI24
I15
sI25
I17
sI26
I9
sI27
I14
sI28
I19
sI29
I7
sI30
I5
sI31
I8
sI32
I6
sI33
I18
sI34
I0
sI35
I1
sI36
I2
sI37
I3
sI38
I11
sI39
I12
s.